target datalayout = "e-m:e-p270:32:32-p271:32:32-p272:64:64-i64:64-i128:128-f80:128-n8:16:32:64-S128"
target triple = "x86_64-pc-linux-gnu"

%"class.cv::Mat" = type { i32, i32, i32, i32, ptr, ptr, ptr, ptr, ptr, ptr, %"struct.cv::MatSize", %"struct.cv::MatStep" }
%"struct.cv::MatSize" = type { ptr }
%"struct.cv::MatStep" = type { ptr, [2 x i64] }
%"class.cv::ccm::Operations" = type { ptr, %"class.std::vector" }
%"class.std::vector" = type { %"struct.std::_Vector_base" }
%"struct.std::_Vector_base" = type { %"struct.std::_Vector_base<cv::ccm::Operation, std::allocator<cv::ccm::Operation>>::_Vector_impl" }
%"struct.std::_Vector_base<cv::ccm::Operation, std::allocator<cv::ccm::Operation>>::_Vector_impl" = type { %"struct.std::_Vector_base<cv::ccm::Operation, std::allocator<cv::ccm::Operation>>::_Vector_impl_data" }
%"struct.std::_Vector_base<cv::ccm::Operation, std::allocator<cv::ccm::Operation>>::_Vector_impl_data" = type { ptr, ptr, ptr }
%"class.cv::ccm::ColorSpace" = type { ptr, %"class.cv::ccm::IO", %"class.std::__cxx11::basic_string", i8, %"class.cv::ccm::Operations", %"class.cv::ccm::Operations", ptr, ptr }
%"class.cv::ccm::IO" = type { ptr, %"class.std::__cxx11::basic_string", %"class.std::__cxx11::basic_string" }
%"class.std::__cxx11::basic_string" = type { %"struct.std::__cxx11::basic_string<char>::_Alloc_hider", i64, %union.anon }
%"struct.std::__cxx11::basic_string<char>::_Alloc_hider" = type { ptr }
%union.anon = type { i64, [8 x i8] }
%"class.cv::ccm::RGBBase_" = type { %"class.cv::ccm::ColorSpace", double, double, double, double, double, double, %"class.cv::Mat", %"class.cv::Mat" }
%"class.cv::ccm::sRGBBase_" = type { %"class.cv::ccm::RGBBase_", double, double, double, double, double, double }

; Function Attrs: mustprogress nounwind uwtable
define hidden noundef double @_ZNK2cv3ccm9sRGBBase_11fromLFuncEWERKd(ptr noundef nonnull align 8 dereferenceable(488) %0, ptr noundef nonnull align 8 dereferenceable(8) %1) #8 align 2 {
  %3 = alloca double, align 8
  %4 = alloca ptr, align 8
  %5 = alloca ptr, align 8
  store ptr %0, ptr %4, align 8, !tbaa !141
  store ptr %1, ptr %5, align 8, !tbaa !150
  %6 = load ptr, ptr %4, align 8
  %7 = load ptr, ptr %5, align 8, !tbaa !150
  %8 = load double, ptr %7, align 8, !tbaa !65
  %9 = getelementptr inbounds nuw %"class.cv::ccm::sRGBBase_", ptr %6, i32 0, i32 4
  %10 = load double, ptr %9, align 8, !tbaa !149
  %11 = fcmp ogt double %8, %10
  br i1 %11, label %12, label %26

12:                                               ; preds = %2
  %13 = getelementptr inbounds nuw %"class.cv::ccm::sRGBBase_", ptr %6, i32 0, i32 3
  %14 = load double, ptr %13, align 8, !tbaa !145
  %15 = load ptr, ptr %5, align 8, !tbaa !150
  %16 = load double, ptr %15, align 8, !tbaa !65
  %17 = getelementptr inbounds nuw %"class.cv::ccm::sRGBBase_", ptr %6, i32 0, i32 2
  %18 = load double, ptr %17, align 8, !tbaa !146
  %19 = fdiv double 1.000000e+00, %18
  %20 = call double @pow(double noundef %16, double noundef %19) #3, !tbaa !122
  %21 = getelementptr inbounds nuw %"class.cv::ccm::sRGBBase_", ptr %6, i32 0, i32 3
  %22 = load double, ptr %21, align 8, !tbaa !145
  %23 = fsub double %22, 1.000000e+00
  %24 = fneg double %23
  %25 = call double @llvm.fmuladd.f64(double %14, double %20, double %24)
  store double %25, ptr %3, align 8
  br label %55

26:                                               ; preds = %2
  %27 = load ptr, ptr %5, align 8, !tbaa !150
  %28 = load double, ptr %27, align 8, !tbaa !65
  %29 = getelementptr inbounds nuw %"class.cv::ccm::sRGBBase_", ptr %6, i32 0, i32 4
  %30 = load double, ptr %29, align 8, !tbaa !149
  %31 = fneg double %30
  %32 = fcmp oge double %28, %31
  br i1 %32, label %33, label %39

33:                                               ; preds = %26
  %34 = load ptr, ptr %5, align 8, !tbaa !150
  %35 = load double, ptr %34, align 8, !tbaa !65
  %36 = getelementptr inbounds nuw %"class.cv::ccm::sRGBBase_", ptr %6, i32 0, i32 5
  %37 = load double, ptr %36, align 8, !tbaa !148
  %38 = fmul double %35, %37
  store double %38, ptr %3, align 8
  br label %55

39:                                               ; preds = %26
  %40 = getelementptr inbounds nuw %"class.cv::ccm::sRGBBase_", ptr %6, i32 0, i32 3
  %41 = load double, ptr %40, align 8, !tbaa !145
  %42 = load ptr, ptr %5, align 8, !tbaa !150
  %43 = load double, ptr %42, align 8, !tbaa !65
  %44 = fneg double %43
  %45 = getelementptr inbounds nuw %"class.cv::ccm::sRGBBase_", ptr %6, i32 0, i32 2
  %46 = load double, ptr %45, align 8, !tbaa !146
  %47 = fdiv double 1.000000e+00, %46
  %48 = call double @pow(double noundef %44, double noundef %47) #3, !tbaa !122
  %49 = getelementptr inbounds nuw %"class.cv::ccm::sRGBBase_", ptr %6, i32 0, i32 3
  %50 = load double, ptr %49, align 8, !tbaa !145
  %51 = fsub double %50, 1.000000e+00
  %52 = fneg double %51
  %53 = call double @llvm.fmuladd.f64(double %41, double %48, double %52)
  %54 = fneg double %53
  store double %54, ptr %3, align 8
  br label %55

55:                                               ; preds = %39, %33, %12
  %56 = load double, ptr %3, align 8
  ret double %56
}