; Function Attrs: mustprogress nofree nounwind willreturn memory(write, argmem: readwrite) uwtable
define hidden noundef double @_ZNK2cv3ccm9sRGBBase_11fromLFuncEWERKd(ptr noundef nonnull readonly align 8 captures(none) dereferenceable(488) %0, ptr noundef nonnull readonly align 8 captures(none) dereferenceable(8) %1) local_unnamed_addr #8 align 2 {
  %3 = load double, ptr %1, align 8, !tbaa !84
  %4 = getelementptr inbounds nuw i8, ptr %0, i64 464
  %5 = load double, ptr %4, align 8, !tbaa !133
  %6 = fcmp ogt double %3, %5
  br i1 %6, label %7, label %17

7:                                                ; preds = %2
  %8 = getelementptr inbounds nuw i8, ptr %0, i64 456
  %9 = load double, ptr %8, align 8, !tbaa !129
  %10 = getelementptr inbounds nuw i8, ptr %0, i64 448
  %11 = load double, ptr %10, align 8, !tbaa !130
  %12 = fdiv double 1.000000e+00, %11
  %13 = tail call double @pow(double noundef %3, double noundef %12) #35, !tbaa !95
  %14 = fadd double %9, -1.000000e+00
  %15 = fneg double %14
  %16 = tail call double @llvm.fmuladd.f64(double %9, double %13, double %15)
  br label %36

17:                                               ; preds = %2
  %18 = fneg double %5
  %19 = fcmp ult double %3, %18
  br i1 %19, label %24, label %20

20:                                               ; preds = %17
  %21 = getelementptr inbounds nuw i8, ptr %0, i64 472
  %22 = load double, ptr %21, align 8, !tbaa !132
  %23 = fmul double %3, %22
  br label %36

24:                                               ; preds = %17
  %25 = getelementptr inbounds nuw i8, ptr %0, i64 456
  %26 = load double, ptr %25, align 8, !tbaa !129
  %27 = fneg double %3
  %28 = getelementptr inbounds nuw i8, ptr %0, i64 448
  %29 = load double, ptr %28, align 8, !tbaa !130
  %30 = fdiv double 1.000000e+00, %29
  %31 = tail call double @pow(double noundef %27, double noundef %30) #35, !tbaa !95
  %32 = fadd double %26, -1.000000e+00
  %33 = fneg double %32
  %34 = tail call double @llvm.fmuladd.f64(double %26, double %31, double %33)
  %35 = fneg double %34
  br label %36

36:                                               ; preds = %24, %20, %7
  %.0 = phi double [ %16, %7 ], [ %23, %20 ], [ %35, %24 ]
  ret double %.0
}